; ModuleID = 'source-C-CXX/52/359.c'
source_filename = "source-C-CXX/52/359.c"
target datalayout = "e-m:e-p270:32:32-p271:32:32-p272:64:64-i64:64-f80:128-n8:16:32:64-S128"
target triple = "x86_64-pc-linux-gnu"

@.str = private unnamed_addr constant [3 x i8] c"%d\00", align 1
@.str.1 = private unnamed_addr constant [4 x i8] c",%d\00", align 1

; Function Attrs: nofree nounwind sspstrong uwtable
define dso_local void @main() local_unnamed_addr #0 {
  %1 = alloca i32, align 4
  %2 = alloca [1000 x i32], align 16
  %3 = bitcast i32* %1 to i8*
  call void @llvm.lifetime.start.p0i8(i64 4, i8* nonnull %3) #4
  %4 = bitcast [1000 x i32]* %2 to i8*
  call void @llvm.lifetime.start.p0i8(i64 4000, i8* nonnull %4) #4
  %5 = call i32 (i8*, ...) @__isoc99_scanf(i8* getelementptr inbounds ([3 x i8], [3 x i8]* @.str, i64 0, i64 0), i32* nonnull %1)
  %6 = getelementptr inbounds [1000 x i32], [1000 x i32]* %2, i64 0, i64 0
  %7 = load i32, i32* %1, align 4, !tbaa !5
  %8 = icmp sgt i32 %7, 0
  br i1 %8, label %9, label %43

9:                                                ; preds = %0, %37
  %10 = phi i64 [ %39, %37 ], [ 0, %0 ]
  %11 = phi i32 [ %38, %37 ], [ undef, %0 ]
  %12 = phi i32 [ %20, %37 ], [ 0, %0 ]
  %13 = getelementptr inbounds [1000 x i32], [1000 x i32]* %2, i64 0, i64 %10
  %14 = call i32 (i8*, ...) @__isoc99_scanf(i8* getelementptr inbounds ([3 x i8], [3 x i8]* @.str, i64 0, i64 0), i32* nonnull %13)
  %15 = icmp eq i32 %12, 0
  br i1 %15, label %16, label %19

16:                                               ; preds = %9
  %17 = load i32, i32* %6, align 16, !tbaa !5
  %18 = call i32 (i8*, ...) @printf(i8* nonnull dereferenceable(1) getelementptr inbounds ([3 x i8], [3 x i8]* @.str, i64 0, i64 0), i32 %17)
  br label %19

19:                                               ; preds = %16, %9
  %20 = phi i32 [ 1, %16 ], [ %12, %9 ]
  %21 = icmp eq i64 %10, 0
  br i1 %21, label %32, label %22

22:                                               ; preds = %19
  %23 = load i32, i32* %13, align 4, !tbaa !5
  br label %26

24:                                               ; preds = %26
  %25 = icmp eq i64 %31, %10
  br i1 %25, label %34, label %26, !llvm.loop !9

26:                                               ; preds = %22, %24
  %27 = phi i64 [ 0, %22 ], [ %31, %24 ]
  %28 = getelementptr inbounds [1000 x i32], [1000 x i32]* %2, i64 0, i64 %27
  %29 = load i32, i32* %28, align 4, !tbaa !5
  %30 = icmp eq i32 %23, %29
  %31 = add nuw nsw i64 %27, 1
  br i1 %30, label %37, label %24

32:                                               ; preds = %19
  %33 = icmp eq i32 %11, 1
  br i1 %33, label %34, label %37

34:                                               ; preds = %24, %32
  %35 = load i32, i32* %13, align 4, !tbaa !5
  %36 = call i32 (i8*, ...) @printf(i8* nonnull dereferenceable(1) getelementptr inbounds ([4 x i8], [4 x i8]* @.str.1, i64 0, i64 0), i32 %35)
  br label %37

37:                                               ; preds = %26, %32, %34
  %38 = phi i32 [ %11, %32 ], [ 1, %34 ], [ 0, %26 ]
  %39 = add nuw nsw i64 %10, 1
  %40 = load i32, i32* %1, align 4, !tbaa !5
  %41 = sext i32 %40 to i64
  %42 = icmp slt i64 %39, %41
  br i1 %42, label %9, label %43, !llvm.loop !11

43:                                               ; preds = %37, %0
  %44 = call i32 @putchar(i32 10)
  call void @llvm.lifetime.end.p0i8(i64 4000, i8* nonnull %4) #4
  call void @llvm.lifetime.end.p0i8(i64 4, i8* nonnull %3) #4
  ret void
}

; Function Attrs: argmemonly mustprogress nofree nosync nounwind willreturn
declare void @llvm.lifetime.start.p0i8(i64 immarg, i8* nocapture) #1

; Function Attrs: nofree nounwind
declare noundef i32 @__isoc99_scanf(i8* nocapture noundef readonly, ...) local_unnamed_addr #2

; Function Attrs: nofree nounwind
declare noundef i32 @printf(i8* nocapture noundef readonly, ...) local_unnamed_addr #2

; Function Attrs: argmemonly mustprogress nofree nosync nounwind willreturn
declare void @llvm.lifetime.end.p0i8(i64 immarg, i8* nocapture) #1

; Function Attrs: nofree nounwind
declare noundef i32 @putchar(i32 noundef) local_unnamed_addr #3


!llvm.module.flags = !{!0, !1, !2, !3}
!llvm.ident = !{!4}

!0 = !{i32 1, !"wchar_size", i32 4}
!1 = !{i32 7, !"PIC Level", i32 2}
!2 = !{i32 7, !"PIE Level", i32 2}
!3 = !{i32 7, !"uwtable", i32 1}
!4 = !{!"clang version 13.0.0"}
!5 = !{!6, !6, i64 0}
!6 = !{!"int", !7, i64 0}
!7 = !{!"omnipotent char", !8, i64 0}
!8 = !{!"Simple C/C++ TBAA"}
!9 = distinct !{!9, !10}
!10 = !{!"llvm.loop.mustprogress"}
!11 = distinct !{!11, !10}
